target datalayout = "e-m:e-p270:32:32-p271:32:32-p272:64:64-i64:64-i128:128-f80:128-n8:16:32:64-S128"
target triple = "x86_64-pc-linux-gnu"

@.str.4 = private unnamed_addr constant [34 x i8] c"../openssl/test/threadpool_test.c\00", align 1
@.str.9 = private unnamed_addr constant [2 x i8] c"t\00", align 1
@.str.10 = private unnamed_addr constant [43 x i8] c"ossl_crypto_thread_native_join(t, &retval)\00", align 1
@.str.11 = private unnamed_addr constant [2 x i8] c"1\00", align 1
@.str.12 = private unnamed_addr constant [7 x i8] c"retval\00", align 1
@.str.13 = private unnamed_addr constant [6 x i8] c"local\00", align 1
@.str.14 = private unnamed_addr constant [2 x i8] c"2\00", align 1
@.str.15 = private unnamed_addr constant [35 x i8] c"ossl_crypto_thread_native_clean(t)\00", align 1
@.str.16 = private unnamed_addr constant [2 x i8] c"0\00", align 1

; Function Attrs: nounwind uwtable
define internal i32 @test_thread_native() #0 {
  %1 = alloca i32, align 4
  %2 = alloca i32, align 4
  %3 = alloca i32, align 4
  %4 = alloca ptr, align 8
  %5 = alloca i32, align 4
  call void @llvm.lifetime.start.p0(i64 4, ptr %2) #4
  call void @llvm.lifetime.start.p0(i64 4, ptr %3) #4
  call void @llvm.lifetime.start.p0(i64 8, ptr %4) #4
  store i32 1, ptr %3, align 4, !tbaa !4
  %6 = call ptr @ossl_crypto_thread_native_start(ptr noundef @test_thread_native_fn, ptr noundef %3, i32 noundef 1)
  store ptr %6, ptr %4, align 8, !tbaa !8
  %7 = load ptr, ptr %4, align 8, !tbaa !8
  %8 = call i32 @test_ptr(ptr noundef @.str.4, i32 noundef 68, ptr noundef @.str.9, ptr noundef %7)
  %9 = icmp ne i32 %8, 0
  br i1 %9, label %11, label %10

10:                                               ; preds = %0
  store i32 0, ptr %1, align 4
  store i32 1, ptr %5, align 4
  br label %45

11:                                               ; preds = %0
  %12 = load ptr, ptr %4, align 8, !tbaa !8
  %13 = call i32 @ossl_crypto_thread_native_join(ptr noundef %12, ptr noundef %2)
  %14 = call i32 @test_int_eq(ptr noundef @.str.4, i32 noundef 77, ptr noundef @.str.10, ptr noundef @.str.11, i32 noundef %13, i32 noundef 1)
  %15 = icmp ne i32 %14, 0
  br i1 %15, label %17, label %16

16:                                               ; preds = %11
  store i32 0, ptr %1, align 4
  store i32 1, ptr %5, align 4
  br label %45

17:                                               ; preds = %11
  %18 = load ptr, ptr %4, align 8, !tbaa !8
  %19 = call i32 @ossl_crypto_thread_native_join(ptr noundef %18, ptr noundef %2)
  %20 = call i32 @test_int_eq(ptr noundef @.str.4, i32 noundef 79, ptr noundef @.str.10, ptr noundef @.str.11, i32 noundef %19, i32 noundef 1)
  %21 = icmp ne i32 %20, 0
  br i1 %21, label %23, label %22

22:                                               ; preds = %17
  store i32 0, ptr %1, align 4
  store i32 1, ptr %5, align 4
  br label %45

23:                                               ; preds = %17
  %24 = load i32, ptr %2, align 4, !tbaa !4
  %25 = call i32 @test_int_eq(ptr noundef @.str.4, i32 noundef 82, ptr noundef @.str.12, ptr noundef @.str.11, i32 noundef %24, i32 noundef 1)
  %26 = icmp ne i32 %25, 0
  br i1 %26, label %27, label %31

27:                                               ; preds = %23
  %28 = load i32, ptr %3, align 4, !tbaa !4
  %29 = call i32 @test_int_eq(ptr noundef @.str.4, i32 noundef 82, ptr noundef @.str.13, ptr noundef @.str.14, i32 noundef %28, i32 noundef 2)
  %30 = icmp ne i32 %29, 0
  br i1 %30, label %32, label %31

31:                                               ; preds = %27, %23
  store i32 0, ptr %1, align 4
  store i32 1, ptr %5, align 4
  br label %45

32:                                               ; preds = %27
  %33 = load ptr, ptr %4, align 8, !tbaa !8
  %34 = call i32 @ossl_crypto_thread_native_clean(ptr noundef %33)
  %35 = call i32 @test_int_eq(ptr noundef @.str.4, i32 noundef 85, ptr noundef @.str.15, ptr noundef @.str.11, i32 noundef %34, i32 noundef 1)
  %36 = icmp ne i32 %35, 0
  br i1 %36, label %38, label %37

37:                                               ; preds = %32
  store i32 0, ptr %1, align 4
  store i32 1, ptr %5, align 4
  br label %45

38:                                               ; preds = %32
  store ptr null, ptr %4, align 8, !tbaa !8
  %39 = load ptr, ptr %4, align 8, !tbaa !8
  %40 = call i32 @ossl_crypto_thread_native_clean(ptr noundef %39)
  %41 = call i32 @test_int_eq(ptr noundef @.str.4, i32 noundef 89, ptr noundef @.str.15, ptr noundef @.str.16, i32 noundef %40, i32 noundef 0)
  %42 = icmp ne i32 %41, 0
  br i1 %42, label %44, label %43

43:                                               ; preds = %38
  store i32 0, ptr %1, align 4
  store i32 1, ptr %5, align 4
  br label %45

44:                                               ; preds = %38
  store i32 1, ptr %1, align 4
  store i32 1, ptr %5, align 4
  br label %45

45:                                               ; preds = %44, %43, %37, %31, %22, %16, %10
  call void @llvm.lifetime.end.p0(i64 8, ptr %4) #4
  call void @llvm.lifetime.end.p0(i64 4, ptr %3) #4
  call void @llvm.lifetime.end.p0(i64 4, ptr %2) #4
  %46 = load i32, ptr %1, align 4
  ret i32 %46
}