; Function Attrs: nounwind uwtable
define internal range(i32 0, 2) i32 @test_thread_native() #0 {
  %1 = alloca i32, align 4
  %2 = alloca i32, align 4
  call void @llvm.lifetime.start.p0(i64 4, ptr nonnull %1) #6
  call void @llvm.lifetime.start.p0(i64 4, ptr nonnull %2) #6
  store i32 1, ptr %2, align 4, !tbaa !4
  %3 = call ptr @ossl_crypto_thread_native_start(ptr noundef nonnull @test_thread_native_fn, ptr noundef nonnull %2, i32 noundef 1) #6
  %4 = call i32 @test_ptr(ptr noundef nonnull @.str.4, i32 noundef 68, ptr noundef nonnull @.str.9, ptr noundef %3) #6
  %.not = icmp eq i32 %4, 0
  br i1 %.not, label %23, label %5

5:                                                ; preds = %0
  %6 = call i32 @ossl_crypto_thread_native_join(ptr noundef %3, ptr noundef nonnull %1) #6
  %7 = call i32 @test_int_eq(ptr noundef nonnull @.str.4, i32 noundef 77, ptr noundef nonnull @.str.10, ptr noundef nonnull @.str.11, i32 noundef %6, i32 noundef 1) #6
  %.not5 = icmp eq i32 %7, 0
  br i1 %.not5, label %23, label %8

8:                                                ; preds = %5
  %9 = call i32 @ossl_crypto_thread_native_join(ptr noundef %3, ptr noundef nonnull %1) #6
  %10 = call i32 @test_int_eq(ptr noundef nonnull @.str.4, i32 noundef 79, ptr noundef nonnull @.str.10, ptr noundef nonnull @.str.11, i32 noundef %9, i32 noundef 1) #6
  %.not6 = icmp eq i32 %10, 0
  br i1 %.not6, label %23, label %11

11:                                               ; preds = %8
  %12 = load i32, ptr %1, align 4, !tbaa !4
  %13 = call i32 @test_int_eq(ptr noundef nonnull @.str.4, i32 noundef 82, ptr noundef nonnull @.str.12, ptr noundef nonnull @.str.11, i32 noundef %12, i32 noundef 1) #6
  %.not7 = icmp eq i32 %13, 0
  br i1 %.not7, label %23, label %14

14:                                               ; preds = %11
  %15 = load i32, ptr %2, align 4, !tbaa !4
  %16 = call i32 @test_int_eq(ptr noundef nonnull @.str.4, i32 noundef 82, ptr noundef nonnull @.str.13, ptr noundef nonnull @.str.14, i32 noundef %15, i32 noundef 2) #6
  %.not8 = icmp eq i32 %16, 0
  br i1 %.not8, label %23, label %17

17:                                               ; preds = %14
  %18 = call i32 @ossl_crypto_thread_native_clean(ptr noundef %3) #6
  %19 = call i32 @test_int_eq(ptr noundef nonnull @.str.4, i32 noundef 85, ptr noundef nonnull @.str.15, ptr noundef nonnull @.str.11, i32 noundef %18, i32 noundef 1) #6
  %.not9 = icmp eq i32 %19, 0
  br i1 %.not9, label %23, label %20

20:                                               ; preds = %17
  %21 = call i32 @ossl_crypto_thread_native_clean(ptr noundef null) #6
  %22 = call i32 @test_int_eq(ptr noundef nonnull @.str.4, i32 noundef 89, ptr noundef nonnull @.str.15, ptr noundef nonnull @.str.16, i32 noundef %21, i32 noundef 0) #6
  %.not10 = icmp ne i32 %22, 0
  %. = zext i1 %.not10 to i32
  br label %23

23:                                               ; preds = %20, %17, %11, %14, %8, %5, %0
  %.0 = phi i32 [ 0, %0 ], [ 0, %5 ], [ 0, %8 ], [ 0, %14 ], [ 0, %11 ], [ 0, %17 ], [ %., %20 ]
  call void @llvm.lifetime.end.p0(i64 4, ptr nonnull %2) #6
  call void @llvm.lifetime.end.p0(i64 4, ptr nonnull %1) #6
  ret i32 %.0
}